target datalayout = "e-m:e-p270:32:32-p271:32:32-p272:64:64-i64:64-i128:128-f80:128-n8:16:32:64-S128"
target triple = "x86_64-pc-linux-gnu"

%struct.MpegTSContext = type { ptr, ptr, i32, i64, i32, i32, i32, i64, i64, i32, ptr, i64, i32, i32, i32, i32, i32, i32, i32, i32, i32, ptr, [8192 x i8], [8192 x ptr], i32, ptr, [32 x ptr] }
%struct.MpegTSFilter = type { i32, i32, i32, i64, i32, i32, %union.anon.0 }
%union.anon.0 = type { %struct.MpegTSSectionFilter }
%struct.MpegTSSectionFilter = type { i32, i32, i32, i32, i32, ptr, i8, ptr, ptr }
%struct.SLConfigDescr = type { i32, i32, i32, i32, i32, i32, i32, i32, i32, i32, i32, i32, i32, i32 }
%struct.MpegTSPESFilter = type { ptr, ptr }
%struct.PESContext = type { i32, i32, i32, ptr, ptr, ptr, ptr, i32, i32, i32, i32, i32, i32, i8, i64, i64, i64, [264 x i8], ptr, %struct.SLConfigDescr, i32 }
%struct.AVFormatContext = type { ptr, ptr, ptr, ptr, ptr, i32, i32, ptr, i32, ptr, i32, ptr, ptr, i64, i64, i64, i32, i32, i32, i64, i64, ptr, i32, i32, ptr, i32, i32, i32, i32, ptr, i64, i32, i32, %struct.AVIOInterruptCB, i32, i32, i32, i32, i64, i32, i32, i32, i32, i32, i32, i32, i32, i32, i32, i32, i32, i64, i32, i32, i32, i32, i32, ptr, ptr, ptr, ptr, i32, ptr, ptr, ptr, ptr, i32, ptr, ptr, i64, ptr, ptr, ptr, i64 }
%struct.AVIOInterruptCB = type { ptr, ptr }

@.str.93 = private unnamed_addr constant [21 x i8] c"Skipping after seek\0A\00", align 1

; Function Attrs: nounwind uwtable
define internal void @finished_reading_packet(ptr noundef %0, i32 noundef %1) #0 {
  %3 = alloca ptr, align 8
  %4 = alloca i32, align 4
  %5 = alloca ptr, align 8
  %6 = alloca i32, align 4
  store ptr %0, ptr %3, align 8, !tbaa !4
  store i32 %1, ptr %4, align 4, !tbaa !11
  call void @llvm.lifetime.start.p0(i64 8, ptr %5) #12
  %7 = load ptr, ptr %3, align 8, !tbaa !4
  %8 = getelementptr inbounds nuw %struct.AVFormatContext, ptr %7, i32 0, i32 4
  %9 = load ptr, ptr %8, align 8, !tbaa !182
  store ptr %9, ptr %5, align 8, !tbaa !183
  call void @llvm.lifetime.start.p0(i64 4, ptr %6) #12
  %10 = load i32, ptr %4, align 4, !tbaa !11
  %11 = icmp eq i32 %10, 192
  br i1 %11, label %12, label %15

12:                                               ; preds = %2
  %13 = load i32, ptr %4, align 4, !tbaa !11
  %14 = sub nsw i32 %13, 192
  store i32 %14, ptr %6, align 4, !tbaa !11
  br label %18

15:                                               ; preds = %2
  %16 = load i32, ptr %4, align 4, !tbaa !11
  %17 = sub nsw i32 %16, 188
  store i32 %17, ptr %6, align 4, !tbaa !11
  br label %18

18:                                               ; preds = %15, %12
  %19 = load i32, ptr %6, align 4, !tbaa !11
  %20 = icmp sgt i32 %19, 0
  br i1 %20, label %21, label %26

21:                                               ; preds = %18
  %22 = load ptr, ptr %5, align 8, !tbaa !183
  %23 = load i32, ptr %6, align 4, !tbaa !11
  %24 = sext i32 %23 to i64
  %25 = call i64 @avio_skip(ptr noundef %22, i64 noundef %24)
  br label %26

26:                                               ; preds = %21, %18
  call void @llvm.lifetime.end.p0(i64 4, ptr %6) #12
  call void @llvm.lifetime.end.p0(i64 8, ptr %5) #12
  ret void
}

; Function Attrs: alwaysinline nounwind uwtable
define internal i64 @avio_tell(ptr noundef %0) #2 {
  %2 = alloca ptr, align 8
  store ptr %0, ptr %2, align 8, !tbaa !183
  %3 = load ptr, ptr %2, align 8, !tbaa !183
  %4 = call i64 @avio_seek(ptr noundef %3, i64 noundef 0, i32 noundef 1)
  ret i64 %4
}

; Function Attrs: nounwind uwtable
define internal i32 @handle_packets(ptr noundef %0, i64 noundef %1) #0 {
  %3 = alloca ptr, align 8
  %4 = alloca i64, align 8
  %5 = alloca ptr, align 8
  %6 = alloca [252 x i8], align 16
  %7 = alloca ptr, align 8
  %8 = alloca i64, align 8
  %9 = alloca i32, align 4
  %10 = alloca i32, align 4
  %11 = alloca ptr, align 8
  store ptr %0, ptr %3, align 8, !tbaa !20
  store i64 %1, ptr %4, align 8, !tbaa !90
  call void @llvm.lifetime.start.p0(i64 8, ptr %5) #12
  %12 = load ptr, ptr %3, align 8, !tbaa !20
  %13 = getelementptr inbounds nuw %struct.MpegTSContext, ptr %12, i32 0, i32 1
  %14 = load ptr, ptr %13, align 8, !tbaa !72
  store ptr %14, ptr %5, align 8, !tbaa !4
  call void @llvm.lifetime.start.p0(i64 252, ptr %6) #12
  call void @llvm.lifetime.start.p0(i64 8, ptr %7) #12
  call void @llvm.lifetime.start.p0(i64 8, ptr %8) #12
  call void @llvm.lifetime.start.p0(i64 4, ptr %9) #12
  store i32 0, ptr %9, align 4, !tbaa !11
  %15 = load ptr, ptr %5, align 8, !tbaa !4
  %16 = getelementptr inbounds nuw %struct.AVFormatContext, ptr %15, i32 0, i32 4
  %17 = load ptr, ptr %16, align 8, !tbaa !182
  %18 = call i64 @avio_tell(ptr noundef %17)
  %19 = load ptr, ptr %3, align 8, !tbaa !20
  %20 = getelementptr inbounds nuw %struct.MpegTSContext, ptr %19, i32 0, i32 11
  %21 = load i64, ptr %20, align 8, !tbaa !329
  %22 = icmp ne i64 %18, %21
  br i1 %22, label %23, label %104

23:                                               ; preds = %2
  call void @llvm.lifetime.start.p0(i64 4, ptr %10) #12
  %24 = load ptr, ptr %3, align 8, !tbaa !20
  %25 = getelementptr inbounds nuw %struct.MpegTSContext, ptr %24, i32 0, i32 1
  %26 = load ptr, ptr %25, align 8, !tbaa !72
  call void (ptr, i32, ptr, ...) @av_log(ptr noundef %26, i32 noundef 56, ptr noundef @.str.93)
  store i32 0, ptr %10, align 4, !tbaa !11
  br label %27

27:                                               ; preds = %100, %23
  %28 = load i32, ptr %10, align 4, !tbaa !11
  %29 = icmp slt i32 %28, 8192
  br i1 %29, label %30, label %103

30:                                               ; preds = %27
  %31 = load ptr, ptr %3, align 8, !tbaa !20
  %32 = getelementptr inbounds nuw %struct.MpegTSContext, ptr %31, i32 0, i32 23
  %33 = load i32, ptr %10, align 4, !tbaa !11
  %34 = sext i32 %33 to i64
  %35 = getelementptr inbounds [8192 x ptr], ptr %32, i64 0, i64 %34
  %36 = load ptr, ptr %35, align 8, !tbaa !50
  %37 = icmp ne ptr %36, null
  br i1 %37, label %38, label %99

38:                                               ; preds = %30
  %39 = load ptr, ptr %3, align 8, !tbaa !20
  %40 = getelementptr inbounds nuw %struct.MpegTSContext, ptr %39, i32 0, i32 23
  %41 = load i32, ptr %10, align 4, !tbaa !11
  %42 = sext i32 %41 to i64
  %43 = getelementptr inbounds [8192 x ptr], ptr %40, i64 0, i64 %42
  %44 = load ptr, ptr %43, align 8, !tbaa !50
  %45 = getelementptr inbounds nuw %struct.MpegTSFilter, ptr %44, i32 0, i32 5
  %46 = load i32, ptr %45, align 4, !tbaa !109
  %47 = icmp eq i32 %46, 0
  br i1 %47, label %48, label %64

48:                                               ; preds = %38
  call void @llvm.lifetime.start.p0(i64 8, ptr %11) #12
  %49 = load ptr, ptr %3, align 8, !tbaa !20
  %50 = getelementptr inbounds nuw %struct.MpegTSContext, ptr %49, i32 0, i32 23
  %51 = load i32, ptr %10, align 4, !tbaa !11
  %52 = sext i32 %51 to i64
  %53 = getelementptr inbounds [8192 x ptr], ptr %50, i64 0, i64 %52
  %54 = load ptr, ptr %53, align 8, !tbaa !50
  %55 = getelementptr inbounds nuw %struct.MpegTSFilter, ptr %54, i32 0, i32 6
  %56 = getelementptr inbounds nuw %struct.MpegTSPESFilter, ptr %55, i32 0, i32 1
  %57 = load ptr, ptr %56, align 8, !tbaa !66
  store ptr %57, ptr %11, align 8, !tbaa !110
  %58 = load ptr, ptr %11, align 8, !tbaa !110
  %59 = getelementptr inbounds nuw %struct.PESContext, ptr %58, i32 0, i32 18
  call void @av_buffer_unref(ptr noundef %59)
  %60 = load ptr, ptr %11, align 8, !tbaa !110
  %61 = getelementptr inbounds nuw %struct.PESContext, ptr %60, i32 0, i32 8
  store i32 0, ptr %61, align 4, !tbaa !194
  %62 = load ptr, ptr %11, align 8, !tbaa !110
  %63 = getelementptr inbounds nuw %struct.PESContext, ptr %62, i32 0, i32 7
  store i32 4, ptr %63, align 8, !tbaa !193
  call void @llvm.lifetime.end.p0(i64 8, ptr %11) #12
  br label %84

64:                                               ; preds = %38
  %65 = load ptr, ptr %3, align 8, !tbaa !20
  %66 = getelementptr inbounds nuw %struct.MpegTSContext, ptr %65, i32 0, i32 23
  %67 = load i32, ptr %10, align 4, !tbaa !11
  %68 = sext i32 %67 to i64
  %69 = getelementptr inbounds [8192 x ptr], ptr %66, i64 0, i64 %68
  %70 = load ptr, ptr %69, align 8, !tbaa !50
  %71 = getelementptr inbounds nuw %struct.MpegTSFilter, ptr %70, i32 0, i32 5
  %72 = load i32, ptr %71, align 4, !tbaa !109
  %73 = icmp eq i32 %72, 1
  br i1 %73, label %74, label %83

74:                                               ; preds = %64
  %75 = load ptr, ptr %3, align 8, !tbaa !20
  %76 = getelementptr inbounds nuw %struct.MpegTSContext, ptr %75, i32 0, i32 23
  %77 = load i32, ptr %10, align 4, !tbaa !11
  %78 = sext i32 %77 to i64
  %79 = getelementptr inbounds [8192 x ptr], ptr %76, i64 0, i64 %78
  %80 = load ptr, ptr %79, align 8, !tbaa !50
  %81 = getelementptr inbounds nuw %struct.MpegTSFilter, ptr %80, i32 0, i32 6
  %82 = getelementptr inbounds nuw %struct.MpegTSSectionFilter, ptr %81, i32 0, i32 2
  store i32 -1, ptr %82, align 8, !tbaa !66
  br label %83

83:                                               ; preds = %74, %64
  br label %84

84:                                               ; preds = %83, %48
  %85 = load ptr, ptr %3, align 8, !tbaa !20
  %86 = getelementptr inbounds nuw %struct.MpegTSContext, ptr %85, i32 0, i32 23
  %87 = load i32, ptr %10, align 4, !tbaa !11
  %88 = sext i32 %87 to i64
  %89 = getelementptr inbounds [8192 x ptr], ptr %86, i64 0, i64 %88
  %90 = load ptr, ptr %89, align 8, !tbaa !50
  %91 = getelementptr inbounds nuw %struct.MpegTSFilter, ptr %90, i32 0, i32 2
  store i32 -1, ptr %91, align 8, !tbaa !166
  %92 = load ptr, ptr %3, align 8, !tbaa !20
  %93 = getelementptr inbounds nuw %struct.MpegTSContext, ptr %92, i32 0, i32 23
  %94 = load i32, ptr %10, align 4, !tbaa !11
  %95 = sext i32 %94 to i64
  %96 = getelementptr inbounds [8192 x ptr], ptr %93, i64 0, i64 %95
  %97 = load ptr, ptr %96, align 8, !tbaa !50
  %98 = getelementptr inbounds nuw %struct.MpegTSFilter, ptr %97, i32 0, i32 3
  store i64 -1, ptr %98, align 8, !tbaa !168
  br label %99

99:                                               ; preds = %84, %30
  br label %100

100:                                              ; preds = %99
  %101 = load i32, ptr %10, align 4, !tbaa !11
  %102 = add nsw i32 %101, 1
  store i32 %102, ptr %10, align 4, !tbaa !11
  br label %27, !llvm.loop !330

103:                                              ; preds = %27
  call void @llvm.lifetime.end.p0(i64 4, ptr %10) #12
  br label %104

104:                                              ; preds = %103, %2
  %105 = load ptr, ptr %3, align 8, !tbaa !20
  %106 = getelementptr inbounds nuw %struct.MpegTSContext, ptr %105, i32 0, i32 9
  store i32 0, ptr %106, align 8, !tbaa !163
  store i64 0, ptr %8, align 8, !tbaa !90
  %107 = getelementptr inbounds [252 x i8], ptr %6, i64 0, i64 0
  %108 = getelementptr inbounds i8, ptr %107, i64 188
  call void @llvm.memset.p0.i64(ptr align 1 %108, i8 0, i64 64, i1 false)
  br label %109

109:                                              ; preds = %155, %104
  %110 = load i64, ptr %8, align 8, !tbaa !90
  %111 = add nsw i64 %110, 1
  store i64 %111, ptr %8, align 8, !tbaa !90
  %112 = load i64, ptr %4, align 8, !tbaa !90
  %113 = icmp ne i64 %112, 0
  br i1 %113, label %114, label %118

114:                                              ; preds = %109
  %115 = load i64, ptr %8, align 8, !tbaa !90
  %116 = load i64, ptr %4, align 8, !tbaa !90
  %117 = icmp sge i64 %115, %116
  br i1 %117, label %123, label %118

118:                                              ; preds = %114, %109
  %119 = load ptr, ptr %3, align 8, !tbaa !20
  %120 = getelementptr inbounds nuw %struct.MpegTSContext, ptr %119, i32 0, i32 9
  %121 = load i32, ptr %120, align 8, !tbaa !163
  %122 = icmp sgt i32 %121, 1
  br i1 %122, label %123, label %124

123:                                              ; preds = %118, %114
  store i32 -11, ptr %9, align 4, !tbaa !11
  br label %156

124:                                              ; preds = %118
  %125 = load ptr, ptr %3, align 8, !tbaa !20
  %126 = getelementptr inbounds nuw %struct.MpegTSContext, ptr %125, i32 0, i32 9
  %127 = load i32, ptr %126, align 8, !tbaa !163
  %128 = icmp sgt i32 %127, 0
  br i1 %128, label %129, label %130

129:                                              ; preds = %124
  br label %156

130:                                              ; preds = %124
  %131 = load ptr, ptr %5, align 8, !tbaa !4
  %132 = getelementptr inbounds [252 x i8], ptr %6, i64 0, i64 0
  %133 = load ptr, ptr %3, align 8, !tbaa !20
  %134 = getelementptr inbounds nuw %struct.MpegTSContext, ptr %133, i32 0, i32 2
  %135 = load i32, ptr %134, align 8, !tbaa !118
  %136 = call i32 @read_packet(ptr noundef %131, ptr noundef %132, i32 noundef %135, ptr noundef %7)
  store i32 %136, ptr %9, align 4, !tbaa !11
  %137 = load i32, ptr %9, align 4, !tbaa !11
  %138 = icmp ne i32 %137, 0
  br i1 %138, label %139, label %140

139:                                              ; preds = %130
  br label %156

140:                                              ; preds = %130
  %141 = load ptr, ptr %3, align 8, !tbaa !20
  %142 = load ptr, ptr %7, align 8, !tbaa !16
  %143 = load ptr, ptr %5, align 8, !tbaa !4
  %144 = getelementptr inbounds nuw %struct.AVFormatContext, ptr %143, i32 0, i32 4
  %145 = load ptr, ptr %144, align 8, !tbaa !182
  %146 = call i64 @avio_tell(ptr noundef %145)
  %147 = call i32 @handle_packet(ptr noundef %141, ptr noundef %142, i64 noundef %146)
  store i32 %147, ptr %9, align 4, !tbaa !11
  %148 = load ptr, ptr %5, align 8, !tbaa !4
  %149 = load ptr, ptr %3, align 8, !tbaa !20
  %150 = getelementptr inbounds nuw %struct.MpegTSContext, ptr %149, i32 0, i32 2
  %151 = load i32, ptr %150, align 8, !tbaa !118
  call void @finished_reading_packet(ptr noundef %148, i32 noundef %151)
  %152 = load i32, ptr %9, align 4, !tbaa !11
  %153 = icmp ne i32 %152, 0
  br i1 %153, label %154, label %155

154:                                              ; preds = %140
  br label %156

155:                                              ; preds = %140
  br label %109

156:                                              ; preds = %154, %139, %129, %123
  %157 = load ptr, ptr %5, align 8, !tbaa !4
  %158 = getelementptr inbounds nuw %struct.AVFormatContext, ptr %157, i32 0, i32 4
  %159 = load ptr, ptr %158, align 8, !tbaa !182
  %160 = call i64 @avio_tell(ptr noundef %159)
  %161 = load ptr, ptr %3, align 8, !tbaa !20
  %162 = getelementptr inbounds nuw %struct.MpegTSContext, ptr %161, i32 0, i32 11
  store i64 %160, ptr %162, align 8, !tbaa !329
  %163 = load i32, ptr %9, align 4, !tbaa !11
  call void @llvm.lifetime.end.p0(i64 4, ptr %9) #12
  call void @llvm.lifetime.end.p0(i64 8, ptr %8) #12
  call void @llvm.lifetime.end.p0(i64 8, ptr %7) #12
  call void @llvm.lifetime.end.p0(i64 252, ptr %6) #12
  call void @llvm.lifetime.end.p0(i64 8, ptr %5) #12
  ret i32 %163
}