; Function Attrs: nounwind uwtable
define internal fastcc range(i32 189, 188) i32 @handle_packets(ptr noundef %0, i64 noundef %1) unnamed_addr #0 {
  %3 = alloca [252 x i8], align 16
  %4 = alloca ptr, align 8
  %5 = getelementptr inbounds nuw i8, ptr %0, i64 8
  %6 = load ptr, ptr %5, align 8, !tbaa !57
  call void @llvm.lifetime.start.p0(i64 252, ptr nonnull %3) #12
  call void @llvm.lifetime.start.p0(i64 8, ptr nonnull %4) #12
  %7 = getelementptr inbounds nuw i8, ptr %6, i64 32
  %8 = load ptr, ptr %7, align 8, !tbaa !189
  %9 = tail call i64 @avio_seek(ptr noundef %8, i64 noundef 0, i32 noundef 1) #12
  %10 = getelementptr inbounds nuw i8, ptr %0, i64 80
  %11 = load i64, ptr %10, align 8, !tbaa !285
  %.not = icmp eq i64 %9, %11
  br i1 %.not, label %.loopexit, label %12

12:                                               ; preds = %2
  %13 = load ptr, ptr %5, align 8, !tbaa !57
  tail call void (ptr, i32, ptr, ...) @av_log(ptr noundef %13, i32 noundef 56, ptr noundef nonnull @.str.93) #12
  %14 = getelementptr inbounds nuw i8, ptr %0, i64 8328
  br label %15

15:                                               ; preds = %12, %33
  %indvars.iv = phi i64 [ 0, %12 ], [ %indvars.iv.next, %33 ]
  %16 = getelementptr inbounds nuw [8192 x ptr], ptr %14, i64 0, i64 %indvars.iv
  %17 = load ptr, ptr %16, align 8, !tbaa !46
  %.not53 = icmp eq ptr %17, null
  br i1 %.not53, label %33, label %18

18:                                               ; preds = %15
  %19 = getelementptr inbounds nuw i8, ptr %17, i64 28
  %20 = load i32, ptr %19, align 4, !tbaa !62
  switch i32 %20, label %29 [
    i32 0, label %21
    i32 1, label %27
  ]

21:                                               ; preds = %18
  %22 = getelementptr inbounds nuw i8, ptr %17, i64 40
  %23 = load ptr, ptr %22, align 8, !tbaa !9
  %24 = getelementptr inbounds nuw i8, ptr %23, i64 368
  tail call void @av_buffer_unref(ptr noundef nonnull %24) #12
  %25 = getelementptr inbounds nuw i8, ptr %23, i64 52
  store i32 0, ptr %25, align 4, !tbaa !199
  %26 = getelementptr inbounds nuw i8, ptr %23, i64 48
  store i32 4, ptr %26, align 8, !tbaa !165
  br label %29

27:                                               ; preds = %18
  %28 = getelementptr inbounds nuw i8, ptr %17, i64 40
  store i32 -1, ptr %28, align 8, !tbaa !9
  br label %29

29:                                               ; preds = %18, %27, %21
  %30 = load ptr, ptr %16, align 8, !tbaa !46
  %31 = getelementptr inbounds nuw i8, ptr %30, i64 8
  store i32 -1, ptr %31, align 8, !tbaa !64
  %32 = getelementptr inbounds nuw i8, ptr %30, i64 16
  store i64 -1, ptr %32, align 8, !tbaa !65
  br label %33

33:                                               ; preds = %15, %29
  %indvars.iv.next = add nuw nsw i64 %indvars.iv, 1
  %exitcond.not = icmp eq i64 %indvars.iv.next, 8192
  br i1 %exitcond.not, label %.loopexit, label %15, !llvm.loop !286

.loopexit:                                        ; preds = %33, %2
  %34 = getelementptr inbounds nuw i8, ptr %0, i64 64
  store i32 0, ptr %34, align 8, !tbaa !160
  %35 = getelementptr inbounds nuw i8, ptr %3, i64 188
  call void @llvm.memset.p0.i64(ptr noundef nonnull align 4 dereferenceable(64) %35, i8 0, i64 64, i1 false)
  %36 = getelementptr inbounds nuw i8, ptr %0, i64 16
  %.not49 = icmp eq i64 %1, 0
  br i1 %.not49, label %.split.us, label %.split.preheader

.split.preheader:                                 ; preds = %.loopexit
  %smax = tail call i64 @llvm.smax.i64(i64 %1, i64 1)
  %37 = add nsw i64 %smax, -1
  br label %.split

.split.us:                                        ; preds = %.loopexit, %finished_reading_packet.exit.us
  %38 = load i32, ptr %34, align 8, !tbaa !160
  %39 = icmp sgt i32 %38, 1
  br i1 %39, label %.split56.us, label %40

40:                                               ; preds = %.split.us
  %41 = icmp eq i32 %38, 1
  br i1 %41, label %.split56.us, label %42

42:                                               ; preds = %40
  %43 = load i32, ptr %36, align 8, !tbaa !111
  %44 = call fastcc i32 @read_packet(ptr noundef %6, ptr noundef nonnull %3, i32 noundef %43, ptr noundef %4)
  %.not51.us = icmp eq i32 %44, 0
  br i1 %.not51.us, label %45, label %.split56.us

45:                                               ; preds = %42
  %46 = load ptr, ptr %4, align 8, !tbaa !4
  %47 = load ptr, ptr %7, align 8, !tbaa !189
  %48 = call i64 @avio_seek(ptr noundef %47, i64 noundef 0, i32 noundef 1) #12
  %49 = call fastcc i32 @handle_packet(ptr noundef nonnull %0, ptr noundef %46, i64 noundef %48)
  %50 = load i32, ptr %36, align 8, !tbaa !111
  %51 = icmp eq i32 %50, 192
  %52 = add nsw i32 %50, -188
  %.0.i.us = select i1 %51, i32 0, i32 %52
  %53 = icmp sgt i32 %.0.i.us, 0
  br i1 %53, label %54, label %finished_reading_packet.exit.us

54:                                               ; preds = %45
  %.val.us = load ptr, ptr %7, align 8, !tbaa !189
  %55 = zext nneg i32 %.0.i.us to i64
  %56 = call i64 @avio_skip(ptr noundef %.val.us, i64 noundef %55) #12
  br label %finished_reading_packet.exit.us

finished_reading_packet.exit.us:                  ; preds = %54, %45
  %.not52.us = icmp eq i32 %49, 0
  br i1 %.not52.us, label %.split.us, label %.split56.us

.split:                                           ; preds = %.split.preheader, %finished_reading_packet.exit
  %.0 = phi i64 [ %57, %finished_reading_packet.exit ], [ 0, %.split.preheader ]
  %57 = add nuw nsw i64 %.0, 1
  %exitcond60.not = icmp eq i64 %.0, %37
  br i1 %exitcond60.not, label %.split56.us, label %58

58:                                               ; preds = %.split
  %59 = load i32, ptr %34, align 8, !tbaa !160
  %60 = icmp sgt i32 %59, 1
  br i1 %60, label %.split56.us, label %61

61:                                               ; preds = %58
  %62 = icmp eq i32 %59, 1
  br i1 %62, label %.split56.us, label %63

63:                                               ; preds = %61
  %64 = load i32, ptr %36, align 8, !tbaa !111
  %65 = call fastcc i32 @read_packet(ptr noundef %6, ptr noundef nonnull %3, i32 noundef %64, ptr noundef %4)
  %.not51 = icmp eq i32 %65, 0
  br i1 %.not51, label %66, label %.split56.us

66:                                               ; preds = %63
  %67 = load ptr, ptr %4, align 8, !tbaa !4
  %68 = load ptr, ptr %7, align 8, !tbaa !189
  %69 = call i64 @avio_seek(ptr noundef %68, i64 noundef 0, i32 noundef 1) #12
  %70 = call fastcc i32 @handle_packet(ptr noundef nonnull %0, ptr noundef %67, i64 noundef %69)
  %71 = load i32, ptr %36, align 8, !tbaa !111
  %72 = icmp eq i32 %71, 192
  %73 = add nsw i32 %71, -188
  %.0.i = select i1 %72, i32 0, i32 %73
  %74 = icmp sgt i32 %.0.i, 0
  br i1 %74, label %75, label %finished_reading_packet.exit

75:                                               ; preds = %66
  %.val = load ptr, ptr %7, align 8, !tbaa !189
  %76 = zext nneg i32 %.0.i to i64
  %77 = call i64 @avio_skip(ptr noundef %.val, i64 noundef %76) #12
  br label %finished_reading_packet.exit

finished_reading_packet.exit:                     ; preds = %66, %75
  %.not52 = icmp eq i32 %70, 0
  br i1 %.not52, label %.split, label %.split56.us

.split56.us:                                      ; preds = %61, %63, %finished_reading_packet.exit, %.split, %58, %.split.us, %40, %42, %finished_reading_packet.exit.us
  %.us-phi = phi i32 [ 0, %40 ], [ %44, %42 ], [ %49, %finished_reading_packet.exit.us ], [ -11, %.split.us ], [ 0, %61 ], [ %65, %63 ], [ %70, %finished_reading_packet.exit ], [ -11, %.split ], [ -11, %58 ]
  %78 = load ptr, ptr %7, align 8, !tbaa !189
  %79 = call i64 @avio_seek(ptr noundef %78, i64 noundef 0, i32 noundef 1) #12
  store i64 %79, ptr %10, align 8, !tbaa !285
  call void @llvm.lifetime.end.p0(i64 8, ptr nonnull %4) #12
  call void @llvm.lifetime.end.p0(i64 252, ptr nonnull %3) #12
  ret i32 %.us-phi
}